; Function Attrs: mustprogress uwtable
define void @_ZN8proxygen15HTTPSessionBase19runDestroyCallbacksEv(ptr noundef nonnull align 8 dereferenceable(1582) %this) local_unnamed_addr #3 align 2 {
entry:
  %infoCallback_ = getelementptr inbounds i8, ptr %this, i64 216
  %0 = load ptr, ptr %infoCallback_, align 8
  %tobool.not = icmp eq ptr %0, null
  br i1 %tobool.not, label %if.end, label %if.then

if.then:                                          ; preds = %entry
  %vtable = load ptr, ptr %0, align 8
  %vfn = getelementptr inbounds i8, ptr %vtable, i64 120
  %1 = load ptr, ptr %vfn, align 8
  tail call void %1(ptr noundef nonnull align 8 dereferenceable(8) %0, ptr noundef nonnull align 8 dereferenceable(1582) %this)
  br label %if.end

if.end:                                           ; preds = %if.then, %entry
  %controller_ = getelementptr inbounds i8, ptr %this, i64 1512
  %2 = load ptr, ptr %controller_, align 8
  %tobool3.not = icmp eq ptr %2, null
  br i1 %tobool3.not, label %if.end9, label %if.then4

if.then4:                                         ; preds = %if.end
  %vtable6 = load ptr, ptr %2, align 8
  %vfn7 = getelementptr inbounds i8, ptr %vtable6, i64 48
  %3 = load ptr, ptr %vfn7, align 8
  tail call void %3(ptr noundef nonnull align 8 dereferenceable(8) %2, ptr noundef nonnull %this)
  store ptr null, ptr %controller_, align 8
  br label %if.end9

if.end9:                                          ; preds = %if.then4, %if.end
  ret void
}